; Function Attrs: mustprogress uwtable
define dso_local void @_ZN13StatementExprC2EP5BlockRK18FunctionInvocation(ptr noundef nonnull align 8 dereferenceable(64) %0, ptr noundef %1, ptr noundef nonnull align 8 dereferenceable(56) %2) unnamed_addr #3 align 2 personality ptr @__gxx_personality_v0 {
  tail call void @_ZN9StatementC2E14eStatementTypeP5Block(ptr noundef nonnull align 8 dereferenceable(32) %0, i32 noundef 4, ptr noundef %1)
  store ptr getelementptr inbounds ({ [12 x ptr] }, ptr @_ZTV13StatementExpr, i64 0, i32 0, i64 2), ptr %0, align 8
  %4 = getelementptr inbounds i8, ptr %0, i64 32
  invoke void @_ZN17ExpressionFuncallC1ERK18FunctionInvocation(ptr noundef nonnull align 8 dereferenceable(32) %4, ptr noundef nonnull align 8 dereferenceable(56) %2)
          to label %5 unwind label %6

5:                                                ; preds = %3
  ret void

6:                                                ; preds = %3
  %7 = landingpad { ptr, i32 }
          cleanup
  tail call void @_ZN9StatementD2Ev(ptr noundef nonnull align 8 dereferenceable(32) %0) #16
  resume { ptr, i32 } %7
}